target datalayout = "e-m:e-p270:32:32-p271:32:32-p272:64:64-i64:64-i128:128-f80:128-n8:16:32:64-S128"
target triple = "x86_64-pc-linux-gnu"

%"class.std::__cxx11::basic_string" = type { %"struct.std::__cxx11::basic_string<char>::_Alloc_hider", i64, %union.anon }
%"struct.std::__cxx11::basic_string<char>::_Alloc_hider" = type { ptr }
%union.anon = type { i64, [8 x i8] }
%"struct.faiss::ParameterSpace" = type { ptr, %"class.std::vector.14", i32, i32, i64, i8, double }
%"class.std::vector.14" = type { %"struct.std::_Vector_base.15" }
%"struct.std::_Vector_base.15" = type { %"struct.std::_Vector_base<faiss::ParameterRange, std::allocator<faiss::ParameterRange>>::_Vector_impl" }
%"struct.std::_Vector_base<faiss::ParameterRange, std::allocator<faiss::ParameterRange>>::_Vector_impl" = type { %"struct.std::_Vector_base<faiss::ParameterRange, std::allocator<faiss::ParameterRange>>::_Vector_impl_data" }
%"struct.std::_Vector_base<faiss::ParameterRange, std::allocator<faiss::ParameterRange>>::_Vector_impl_data" = type { ptr, ptr, ptr }
%"struct.faiss::ParameterRange" = type { %"class.std::__cxx11::basic_string", %"class.std::vector.19" }
%"class.std::vector.19" = type { %"struct.std::_Vector_base.20" }
%"struct.std::_Vector_base.20" = type { %"struct.std::_Vector_base<double, std::allocator<double>>::_Vector_impl" }
%"struct.std::_Vector_base<double, std::allocator<double>>::_Vector_impl" = type { %"struct.std::_Vector_base<double, std::allocator<double>>::_Vector_impl_data" }
%"struct.std::_Vector_base<double, std::allocator<double>>::_Vector_impl_data" = type { ptr, ptr, ptr }

@.str.35 = private unnamed_addr constant [51 x i8] c"ParameterSpace, %zd parameters, %zd combinations:\0A\00", align 1
@.str.36 = private unnamed_addr constant [8 x i8] c"   %s: \00", align 1
@.str.37 = private unnamed_addr constant [6 x i8] c"%c %g\00", align 1
@.str.38 = private unnamed_addr constant [3 x i8] c"]\0A\00", align 1

; Function Attrs: mustprogress nounwind uwtable
define linkonce_odr noundef nonnull align 8 dereferenceable(8) ptr @_ZNKSt6vectorIdSaIdEEixEm(ptr noundef nonnull align 8 dereferenceable(24) %0, i64 noundef %1) #1 comdat align 2 {
  %3 = alloca ptr, align 8
  %4 = alloca i64, align 8
  store ptr %0, ptr %3, align 8
  store i64 %1, ptr %4, align 8
  %5 = load ptr, ptr %3, align 8
  %6 = getelementptr inbounds %"struct.std::_Vector_base.20", ptr %5, i32 0, i32 0
  %7 = getelementptr inbounds %"struct.std::_Vector_base<double, std::allocator<double>>::_Vector_impl_data", ptr %6, i32 0, i32 0
  %8 = load ptr, ptr %7, align 8
  %9 = load i64, ptr %4, align 8
  %10 = getelementptr inbounds double, ptr %8, i64 %9
  ret ptr %10
}

; Function Attrs: mustprogress nounwind uwtable
define linkonce_odr noundef i64 @_ZNKSt6vectorIdSaIdEE4sizeEv(ptr noundef nonnull align 8 dereferenceable(24) %0) #1 comdat align 2 {
  %2 = alloca ptr, align 8
  store ptr %0, ptr %2, align 8
  %3 = load ptr, ptr %2, align 8
  %4 = getelementptr inbounds %"struct.std::_Vector_base.20", ptr %3, i32 0, i32 0
  %5 = getelementptr inbounds %"struct.std::_Vector_base<double, std::allocator<double>>::_Vector_impl_data", ptr %4, i32 0, i32 1
  %6 = load ptr, ptr %5, align 8
  %7 = getelementptr inbounds %"struct.std::_Vector_base.20", ptr %3, i32 0, i32 0
  %8 = getelementptr inbounds %"struct.std::_Vector_base<double, std::allocator<double>>::_Vector_impl_data", ptr %7, i32 0, i32 0
  %9 = load ptr, ptr %8, align 8
  %10 = ptrtoint ptr %6 to i64
  %11 = ptrtoint ptr %9 to i64
  %12 = sub i64 %10, %11
  %13 = sdiv exact i64 %12, 8
  ret i64 %13
}

; Function Attrs: mustprogress nounwind uwtable
define linkonce_odr noundef nonnull align 8 dereferenceable(56) ptr @_ZNKSt6vectorIN5faiss14ParameterRangeESaIS1_EEixEm(ptr noundef nonnull align 8 dereferenceable(24) %0, i64 noundef %1) #1 comdat align 2 {
  %3 = alloca ptr, align 8
  %4 = alloca i64, align 8
  store ptr %0, ptr %3, align 8
  store i64 %1, ptr %4, align 8
  %5 = load ptr, ptr %3, align 8
  %6 = getelementptr inbounds %"struct.std::_Vector_base.15", ptr %5, i32 0, i32 0
  %7 = getelementptr inbounds %"struct.std::_Vector_base<faiss::ParameterRange, std::allocator<faiss::ParameterRange>>::_Vector_impl_data", ptr %6, i32 0, i32 0
  %8 = load ptr, ptr %7, align 8
  %9 = load i64, ptr %4, align 8
  %10 = getelementptr inbounds %"struct.faiss::ParameterRange", ptr %8, i64 %9
  ret ptr %10
}

; Function Attrs: mustprogress nounwind uwtable
define noundef i64 @_ZNK5faiss14ParameterSpace14n_combinationsEv(ptr noundef nonnull align 8 dereferenceable(64) %0) #1 align 2 {
  %2 = alloca ptr, align 8
  %3 = alloca i64, align 8
  %4 = alloca i32, align 4
  store ptr %0, ptr %2, align 8
  %5 = load ptr, ptr %2, align 8
  store i64 1, ptr %3, align 8
  store i32 0, ptr %4, align 4
  br label %6

6:                                                ; preds = %21, %1
  %7 = load i32, ptr %4, align 4
  %8 = sext i32 %7 to i64
  %9 = getelementptr inbounds %"struct.faiss::ParameterSpace", ptr %5, i32 0, i32 1
  %10 = call noundef i64 @_ZNKSt6vectorIN5faiss14ParameterRangeESaIS1_EE4sizeEv(ptr noundef nonnull align 8 dereferenceable(24) %9) #5
  %11 = icmp ult i64 %8, %10
  br i1 %11, label %12, label %24

12:                                               ; preds = %6
  %13 = getelementptr inbounds %"struct.faiss::ParameterSpace", ptr %5, i32 0, i32 1
  %14 = load i32, ptr %4, align 4
  %15 = sext i32 %14 to i64
  %16 = call noundef nonnull align 8 dereferenceable(56) ptr @_ZNKSt6vectorIN5faiss14ParameterRangeESaIS1_EEixEm(ptr noundef nonnull align 8 dereferenceable(24) %13, i64 noundef %15) #5
  %17 = getelementptr inbounds %"struct.faiss::ParameterRange", ptr %16, i32 0, i32 1
  %18 = call noundef i64 @_ZNKSt6vectorIdSaIdEE4sizeEv(ptr noundef nonnull align 8 dereferenceable(24) %17) #5
  %19 = load i64, ptr %3, align 8
  %20 = mul i64 %19, %18
  store i64 %20, ptr %3, align 8
  br label %21

21:                                               ; preds = %12
  %22 = load i32, ptr %4, align 4
  %23 = add nsw i32 %22, 1
  store i32 %23, ptr %4, align 4
  br label %6, !llvm.loop !29

24:                                               ; preds = %6
  %25 = load i64, ptr %3, align 8
  ret i64 %25
}

; Function Attrs: mustprogress nounwind uwtable
define linkonce_odr noundef i64 @_ZNKSt6vectorIN5faiss14ParameterRangeESaIS1_EE4sizeEv(ptr noundef nonnull align 8 dereferenceable(24) %0) #1 comdat align 2 {
  %2 = alloca ptr, align 8
  store ptr %0, ptr %2, align 8
  %3 = load ptr, ptr %2, align 8
  %4 = getelementptr inbounds %"struct.std::_Vector_base.15", ptr %3, i32 0, i32 0
  %5 = getelementptr inbounds %"struct.std::_Vector_base<faiss::ParameterRange, std::allocator<faiss::ParameterRange>>::_Vector_impl_data", ptr %4, i32 0, i32 1
  %6 = load ptr, ptr %5, align 8
  %7 = getelementptr inbounds %"struct.std::_Vector_base.15", ptr %3, i32 0, i32 0
  %8 = getelementptr inbounds %"struct.std::_Vector_base<faiss::ParameterRange, std::allocator<faiss::ParameterRange>>::_Vector_impl_data", ptr %7, i32 0, i32 0
  %9 = load ptr, ptr %8, align 8
  %10 = ptrtoint ptr %6 to i64
  %11 = ptrtoint ptr %9 to i64
  %12 = sub i64 %10, %11
  %13 = sdiv exact i64 %12, 56
  ret i64 %13
}

; Function Attrs: mustprogress uwtable
define void @_ZNK5faiss14ParameterSpace7displayEv(ptr noundef nonnull align 8 dereferenceable(64) %0) #0 align 2 {
  %2 = alloca ptr, align 8
  %3 = alloca i32, align 4
  %4 = alloca ptr, align 8
  %5 = alloca i8, align 1
  %6 = alloca i32, align 4
  store ptr %0, ptr %2, align 8
  %7 = load ptr, ptr %2, align 8
  %8 = getelementptr inbounds %"struct.faiss::ParameterSpace", ptr %7, i32 0, i32 1
  %9 = call noundef i64 @_ZNKSt6vectorIN5faiss14ParameterRangeESaIS1_EE4sizeEv(ptr noundef nonnull align 8 dereferenceable(24) %8) #5
  %10 = call noundef i64 @_ZNK5faiss14ParameterSpace14n_combinationsEv(ptr noundef nonnull align 8 dereferenceable(64) %7)
  %11 = call i32 (ptr, ...) @printf(ptr noundef @.str.35, i64 noundef %9, i64 noundef %10)
  store i32 0, ptr %3, align 4
  br label %12

12:                                               ; preds = %49, %1
  %13 = load i32, ptr %3, align 4
  %14 = sext i32 %13 to i64
  %15 = getelementptr inbounds %"struct.faiss::ParameterSpace", ptr %7, i32 0, i32 1
  %16 = call noundef i64 @_ZNKSt6vectorIN5faiss14ParameterRangeESaIS1_EE4sizeEv(ptr noundef nonnull align 8 dereferenceable(24) %15) #5
  %17 = icmp ult i64 %14, %16
  br i1 %17, label %18, label %52

18:                                               ; preds = %12
  %19 = getelementptr inbounds %"struct.faiss::ParameterSpace", ptr %7, i32 0, i32 1
  %20 = load i32, ptr %3, align 4
  %21 = sext i32 %20 to i64
  %22 = call noundef nonnull align 8 dereferenceable(56) ptr @_ZNKSt6vectorIN5faiss14ParameterRangeESaIS1_EEixEm(ptr noundef nonnull align 8 dereferenceable(24) %19, i64 noundef %21) #5
  store ptr %22, ptr %4, align 8
  %23 = load ptr, ptr %4, align 8
  %24 = getelementptr inbounds %"struct.faiss::ParameterRange", ptr %23, i32 0, i32 0
  %25 = call noundef ptr @_ZNKSt7__cxx1112basic_stringIcSt11char_traitsIcESaIcEE5c_strEv(ptr noundef nonnull align 8 dereferenceable(32) %24) #5
  %26 = call i32 (ptr, ...) @printf(ptr noundef @.str.36, ptr noundef %25)
  store i8 91, ptr %5, align 1
  store i32 0, ptr %6, align 4
  br label %27

27:                                               ; preds = %44, %18
  %28 = load i32, ptr %6, align 4
  %29 = sext i32 %28 to i64
  %30 = load ptr, ptr %4, align 8
  %31 = getelementptr inbounds %"struct.faiss::ParameterRange", ptr %30, i32 0, i32 1
  %32 = call noundef i64 @_ZNKSt6vectorIdSaIdEE4sizeEv(ptr noundef nonnull align 8 dereferenceable(24) %31) #5
  %33 = icmp ult i64 %29, %32
  br i1 %33, label %34, label %47

34:                                               ; preds = %27
  %35 = load i8, ptr %5, align 1
  %36 = sext i8 %35 to i32
  %37 = load ptr, ptr %4, align 8
  %38 = getelementptr inbounds %"struct.faiss::ParameterRange", ptr %37, i32 0, i32 1
  %39 = load i32, ptr %6, align 4
  %40 = sext i32 %39 to i64
  %41 = call noundef nonnull align 8 dereferenceable(8) ptr @_ZNKSt6vectorIdSaIdEEixEm(ptr noundef nonnull align 8 dereferenceable(24) %38, i64 noundef %40) #5
  %42 = load double, ptr %41, align 8
  %43 = call i32 (ptr, ...) @printf(ptr noundef @.str.37, i32 noundef %36, double noundef %42)
  store i8 44, ptr %5, align 1
  br label %44

44:                                               ; preds = %34
  %45 = load i32, ptr %6, align 4
  %46 = add nsw i32 %45, 1
  store i32 %46, ptr %6, align 4
  br label %27, !llvm.loop !44

47:                                               ; preds = %27
  %48 = call i32 (ptr, ...) @printf(ptr noundef @.str.38)
  br label %49

49:                                               ; preds = %47
  %50 = load i32, ptr %3, align 4
  %51 = add nsw i32 %50, 1
  store i32 %51, ptr %3, align 4
  br label %12, !llvm.loop !45

52:                                               ; preds = %12
  ret void
}