; Function Attrs: mustprogress nounwind uwtable
define void @_ZNK5faiss14ParameterSpace7displayEv(ptr nocapture noundef nonnull readonly align 8 dereferenceable(64) %0) local_unnamed_addr #1 align 2 {
  %2 = getelementptr inbounds i8, ptr %0, i64 8
  %3 = getelementptr inbounds i8, ptr %0, i64 16
  %4 = load ptr, ptr %3, align 8
  %5 = load ptr, ptr %2, align 8
  %6 = ptrtoint ptr %4 to i64
  %7 = ptrtoint ptr %5 to i64
  %8 = sub i64 %6, %7
  %9 = sdiv exact i64 %8, 56
  %.not.i = icmp eq ptr %4, %5
  br i1 %.not.i, label %_ZNK5faiss14ParameterSpace14n_combinationsEv.exit, label %.lr.ph.preheader.i

.lr.ph.preheader.i:                               ; preds = %1
  %umax.i = tail call i64 @llvm.umax.i64(i64 %9, i64 1)
  br label %.lr.ph.i

.lr.ph.i:                                         ; preds = %.lr.ph.i, %.lr.ph.preheader.i
  %indvars.iv.i = phi i64 [ 0, %.lr.ph.preheader.i ], [ %indvars.iv.next.i, %.lr.ph.i ]
  %.057.i = phi i64 [ 1, %.lr.ph.preheader.i ], [ %18, %.lr.ph.i ]
  %10 = getelementptr inbounds %"struct.faiss::ParameterRange", ptr %5, i64 %indvars.iv.i, i32 1
  %11 = getelementptr inbounds i8, ptr %10, i64 8
  %12 = load ptr, ptr %11, align 8
  %13 = load ptr, ptr %10, align 8
  %14 = ptrtoint ptr %12 to i64
  %15 = ptrtoint ptr %13 to i64
  %16 = sub i64 %14, %15
  %17 = ashr exact i64 %16, 3
  %18 = mul i64 %17, %.057.i
  %indvars.iv.next.i = add nuw nsw i64 %indvars.iv.i, 1
  %exitcond.not.i = icmp eq i64 %indvars.iv.next.i, %umax.i
  br i1 %exitcond.not.i, label %_ZNK5faiss14ParameterSpace14n_combinationsEv.exit, label %.lr.ph.i, !llvm.loop !40

_ZNK5faiss14ParameterSpace14n_combinationsEv.exit: ; preds = %.lr.ph.i, %1
  %.05.lcssa.i = phi i64 [ 1, %1 ], [ %18, %.lr.ph.i ]
  %19 = tail call i32 (ptr, ...) @printf(ptr noundef nonnull dereferenceable(1) @.str.35, i64 noundef %9, i64 noundef %.05.lcssa.i)
  %20 = load ptr, ptr %3, align 8
  %21 = load ptr, ptr %2, align 8
  %.not = icmp eq ptr %20, %21
  br i1 %.not, label %._crit_edge18, label %.lr.ph17

.lr.ph17:                                         ; preds = %_ZNK5faiss14ParameterSpace14n_combinationsEv.exit, %._crit_edge
  %indvars.iv21 = phi i64 [ %indvars.iv.next22, %._crit_edge ], [ 0, %_ZNK5faiss14ParameterSpace14n_combinationsEv.exit ]
  %22 = phi ptr [ %42, %._crit_edge ], [ %21, %_ZNK5faiss14ParameterSpace14n_combinationsEv.exit ]
  %23 = getelementptr inbounds %"struct.faiss::ParameterRange", ptr %22, i64 %indvars.iv21
  %24 = tail call noundef ptr @_ZNKSt7__cxx1112basic_stringIcSt11char_traitsIcESaIcEE5c_strEv(ptr noundef nonnull align 8 dereferenceable(32) %23) #14
  %25 = tail call i32 (ptr, ...) @printf(ptr noundef nonnull dereferenceable(1) @.str.36, ptr noundef %24)
  %26 = getelementptr inbounds i8, ptr %23, i64 32
  %27 = getelementptr inbounds i8, ptr %23, i64 40
  %28 = load ptr, ptr %27, align 8
  %29 = load ptr, ptr %26, align 8
  %.not19 = icmp eq ptr %28, %29
  br i1 %.not19, label %._crit_edge, label %.lr.ph

.lr.ph:                                           ; preds = %.lr.ph17, %.lr.ph
  %indvars.iv = phi i64 [ %indvars.iv.next, %.lr.ph ], [ 0, %.lr.ph17 ]
  %30 = phi ptr [ %35, %.lr.ph ], [ %29, %.lr.ph17 ]
  %.01014 = phi i32 [ 44, %.lr.ph ], [ 91, %.lr.ph17 ]
  %31 = getelementptr inbounds double, ptr %30, i64 %indvars.iv
  %32 = load double, ptr %31, align 8
  %33 = tail call i32 (ptr, ...) @printf(ptr noundef nonnull dereferenceable(1) @.str.37, i32 noundef %.01014, double noundef %32)
  %indvars.iv.next = add nuw nsw i64 %indvars.iv, 1
  %34 = load ptr, ptr %27, align 8
  %35 = load ptr, ptr %26, align 8
  %36 = ptrtoint ptr %34 to i64
  %37 = ptrtoint ptr %35 to i64
  %38 = sub i64 %36, %37
  %39 = ashr exact i64 %38, 3
  %40 = icmp ugt i64 %39, %indvars.iv.next
  br i1 %40, label %.lr.ph, label %._crit_edge, !llvm.loop !91

._crit_edge:                                      ; preds = %.lr.ph, %.lr.ph17
  %puts = tail call i32 @puts(ptr nonnull dereferenceable(1) @str)
  %indvars.iv.next22 = add nuw nsw i64 %indvars.iv21, 1
  %41 = load ptr, ptr %3, align 8
  %42 = load ptr, ptr %2, align 8
  %43 = ptrtoint ptr %41 to i64
  %44 = ptrtoint ptr %42 to i64
  %45 = sub i64 %43, %44
  %46 = sdiv exact i64 %45, 56
  %47 = icmp ugt i64 %46, %indvars.iv.next22
  br i1 %47, label %.lr.ph17, label %._crit_edge18, !llvm.loop !92

._crit_edge18:                                    ; preds = %._crit_edge, %_ZNK5faiss14ParameterSpace14n_combinationsEv.exit
  ret void
}